; Function Attrs: nounwind uwtable
define hidden void @plpgsql_push_back_token(i32 noundef %0, ptr noundef readonly captures(none) %1, ptr noundef readonly captures(none) %2, ptr noundef readonly captures(none) %3) local_unnamed_addr #0 {
  %.sroa.0 = alloca %struct.PLwdatum, align 8
  call void @llvm.lifetime.start.p0(i64 32, ptr nonnull %.sroa.0)
  call void @llvm.memcpy.p0.p0.i64(ptr noundef nonnull align 8 dereferenceable(32) %.sroa.0, ptr noundef nonnull align 8 dereferenceable(32) %1, i64 32, i1 false)
  %5 = load ptr, ptr %3, align 8
  %6 = getelementptr inbounds nuw i8, ptr %5, i64 104
  %7 = load i32, ptr %6, align 8
  %8 = icmp sgt i32 %7, 3
  br i1 %8, label %9, label %push_back_token.exit

9:                                                ; preds = %4
  %10 = tail call zeroext i1 @errstart_cold(i32 noundef 21, ptr noundef nonnull @.str) #13
  tail call void @llvm.assume(i1 %10)
  %11 = tail call i32 (ptr, ...) @errmsg_internal(ptr noundef nonnull @.str.7) #12
  tail call void @errfinish(ptr noundef nonnull @.str.2, i32 noundef 388, ptr noundef nonnull @__func__.push_back_token) #12
  unreachable

push_back_token.exit:                             ; preds = %4
  %12 = getelementptr inbounds nuw i8, ptr %5, i64 96
  %13 = load i32, ptr %12, align 8
  %14 = load i32, ptr %2, align 4
  %15 = getelementptr inbounds nuw i8, ptr %5, i64 108
  %16 = sext i32 %7 to i64
  %17 = getelementptr inbounds [4 x i32], ptr %15, i64 0, i64 %16
  store i32 %0, ptr %17, align 4
  %18 = load ptr, ptr %3, align 8
  %19 = getelementptr inbounds nuw i8, ptr %18, i64 128
  %20 = getelementptr inbounds nuw i8, ptr %18, i64 104
  %21 = load i32, ptr %20, align 8
  %22 = sext i32 %21 to i64
  %23 = getelementptr inbounds [4 x %struct.TokenAuxData], ptr %19, i64 0, i64 %22
  call void @llvm.memcpy.p0.p0.i64(ptr noundef nonnull align 8 dereferenceable(32) %23, ptr noundef nonnull align 8 dereferenceable(32) %.sroa.0, i64 32, i1 false)
  %.sroa.4.0..sroa_idx = getelementptr inbounds nuw i8, ptr %23, i64 32
  store i32 %14, ptr %.sroa.4.0..sroa_idx, align 8
  %.sroa.5.0..sroa_idx = getelementptr inbounds nuw i8, ptr %23, i64 36
  store i32 %13, ptr %.sroa.5.0..sroa_idx, align 4
  %24 = load ptr, ptr %3, align 8
  %25 = getelementptr inbounds nuw i8, ptr %24, i64 104
  %26 = load i32, ptr %25, align 8
  %27 = add i32 %26, 1
  store i32 %27, ptr %25, align 8
  call void @llvm.lifetime.end.p0(i64 32, ptr nonnull %.sroa.0)
  ret void
}